Certificate:
    Data:
        Version: 3 (0x2)
        Serial Number: 3 (0x3)
        Signature Algorithm: sha1WithRSAEncryption
        Issuer: CN=XBE Server CA, C=DE, ST=Rheinland-Pfalz, L=Kaiserslautern, O=Fraunhofer ITWM/emailAddress=petry@itwm.fhg.de
        Validity
            Not Before: Aug  5 13:39:44 2008 GMT
            Not After : Aug  5 13:39:44 2011 GMT
        Subject: C=DE, ST=Rheinland-Pfalz, O=Fraunhofer ITWM, CN=XBE Daemon 1
        Subject Public Key Info:
            Public Key Algorithm: rsaEncryption
            RSA Public Key: (2048 bit)
                Modulus (2048 bit):
                    00:94:2b:32:63:99:8f:fe:8c:c6:95:a1:71:d7:b4:
                    1d:25:6d:59:11:3d:f0:ba:59:6b:03:d4:f8:93:47:
                    61:5c:08:20:06:a8:ad:1b:5d:a8:4b:f1:cd:a9:5c:
                    84:b7:74:16:6a:b8:92:cc:b4:9f:b7:f7:a7:c3:ac:
                    50:7e:f6:aa:07:eb:4b:f7:fa:a7:71:27:d0:df:2a:
                    77:ea:4c:fa:c0:ce:87:9a:ac:b7:03:a7:e0:cd:78:
                    1f:f2:b1:db:4d:26:b1:da:76:e0:8d:f0:01:61:03:
                    6c:53:0d:57:f9:8c:31:fa:2b:86:e6:7a:82:73:c6:
                    45:78:6e:96:a3:88:96:b0:54:77:cb:0c:ed:d8:a3:
                    6b:c8:ef:c7:e0:92:e4:cb:7a:84:b0:40:83:40:f8:
                    d4:58:8f:a9:9a:65:71:bd:64:5f:00:af:c8:a1:8c:
                    81:6e:46:9f:96:19:d9:f3:c8:79:78:03:b7:f9:6b:
                    3c:7b:ce:dc:68:bc:e2:05:d8:a2:23:de:4f:44:ce:
                    b7:66:33:1e:63:59:92:72:2a:c8:ef:23:c4:c3:65:
                    f0:38:6a:d0:84:3d:16:df:ec:d9:9f:8a:95:18:7d:
                    04:f7:70:9d:38:9f:bb:1f:62:75:f7:9c:ae:5b:60:
                    3d:19:7f:46:db:ba:93:b0:2c:bf:6e:b7:80:ff:5c:
                    f0:93
                Exponent: 65537 (0x10001)
        X509v3 extensions:
            X509v3 Basic Constraints: 
                CA:FALSE
            X509v3 Subject Key Identifier: 
                E7:C0:29:CB:7F:0B:E7:98:BC:FE:3F:3F:3E:1E:03:B9:43:DD:62:B4
            X509v3 Authority Key Identifier: 
                keyid:A6:66:0C:66:BA:E4:BB:B1:73:64:8F:2B:F0:C8:CB:89:1C:8D:60:BF
                DirName:/CN=XBE Server CA/C=DE/ST=Rheinland-Pfalz/L=Kaiserslautern/O=Fraunhofer ITWM/emailAddress=petry@itwm.fhg.de
                serial:DD:39:25:87:0C:B5:FD:B3

            Netscape CA Revocation Url: 
                http://xen-o-matic.itwm.fhrg.fraunhofer.de/xbe/ca-crl.pem
    Signature Algorithm: sha1WithRSAEncryption
        8f:4a:91:e1:22:eb:04:23:0e:5a:05:08:a2:26:58:e1:b2:47:
        3d:44:64:f6:76:aa:8d:13:e2:27:b7:91:16:51:04:ff:9b:d9:
        ce:de:b1:05:45:1a:47:8f:ab:cb:fd:4c:4f:77:4f:b5:5c:76:
        5c:4b:c3:60:32:98:aa:76:34:d9:51:98:58:1b:1b:84:18:6b:
        99:3d:be:26:25:2c:92:46:cf:7e:62:db:83:b2:a7:b2:dd:71:
        82:fe:bb:9f:ef:6d:5e:a0:9b:4a:75:2d:12:db:1c:01:b6:02:
        69:92:dc:01:59:18:ff:59:0d:58:3d:94:54:69:fb:05:da:6e:
        de:6c:b8:8b:cf:3b:8d:a6:e8:eb:6f:eb:f9:d9:2d:71:72:6a:
        80:a2:fa:27:cf:7f:0d:f5:78:9f:42:da:40:89:ac:5d:48:7b:
        d3:97:9f:d2:d1:21:12:a3:7c:27:0f:94:d1:b6:ae:46:77:80:
        95:e6:fa:7a:c9:73:a0:ce:88:d3:1e:32:ef:e2:9f:e7:dd:80:
        51:0d:d5:3c:94:a7:c2:8f:86:b4:f6:34:16:10:ae:d8:6f:df:
        ba:1c:d3:4f:05:74:95:b1:7a:f1:7b:10:3b:56:06:20:96:71:
        05:16:56:ac:66:57:ff:3c:7a:49:e2:1e:7a:a4:a7:40:5c:61:
        ea:78:f7:73
-----BEGIN CERTIFICATE-----
MIIErjCCA5agAwIBAgIBAzANBgkqhkiG9w0BAQUFADCBlDEWMBQGA1UEAxMNWEJF
IFNlcnZlciBDQTELMAkGA1UEBhMCREUxGDAWBgNVBAgTD1JoZWlubGFuZC1QZmFs
ejEXMBUGA1UEBxMOS2Fpc2Vyc2xhdXRlcm4xGDAWBgNVBAoTD0ZyYXVuaG9mZXIg
SVRXTTEgMB4GCSqGSIb3DQEJARYRcGV0cnlAaXR3bS5maGcuZGUwHhcNMDgwODA1
MTMzOTQ0WhcNMTEwODA1MTMzOTQ0WjBYMQswCQYDVQQGEwJERTEYMBYGA1UECBMP
UmhlaW5sYW5kLVBmYWx6MRgwFgYDVQQKEw9GcmF1bmhvZmVyIElUV00xFTATBgNV
BAMTDFhCRSBEYWVtb24gMTCCASIwDQYJKoZIhvcNAQEBBQADggEPADCCAQoCggEB
AJQrMmOZj/6MxpWhcde0HSVtWRE98LpZawPU+JNHYVwIIAaorRtdqEvxzalchLd0
Fmq4ksy0n7f3p8OsUH72qgfrS/f6p3En0N8qd+pM+sDOh5qstwOn4M14H/Kx200m
sdp24I3wAWEDbFMNV/mMMforhuZ6gnPGRXhulqOIlrBUd8sM7dija8jvx+CS5Mt6
hLBAg0D41FiPqZplcb1kXwCvyKGMgW5Gn5YZ2fPIeXgDt/lrPHvO3Gi84gXYoiPe
T0TOt2YzHmNZknIqyO8jxMNl8Dhq0IQ9Ft/s2Z+KlRh9BPdwnTifux9idfecrltg
PRl/Rtu6k7Asv263gP9c8JMCAwEAAaOCAUQwggFAMAkGA1UdEwQCMAAwHQYDVR0O
BBYEFOfAKct/C+eYvP4/Pz4eA7lD3WK0MIHJBgNVHSMEgcEwgb6AFKZmDGa65Lux
c2SPK/DIy4kcjWC/oYGapIGXMIGUMRYwFAYDVQQDEw1YQkUgU2VydmVyIENBMQsw
CQYDVQQGEwJERTEYMBYGA1UECBMPUmhlaW5sYW5kLVBmYWx6MRcwFQYDVQQHEw5L
YWlzZXJzbGF1dGVybjEYMBYGA1UEChMPRnJhdW5ob2ZlciBJVFdNMSAwHgYJKoZI
hvcNAQkBFhFwZXRyeUBpdHdtLmZoZy5kZYIJAN05JYcMtf2zMEgGCWCGSAGG+EIB
BAQ7FjlodHRwOi8veGVuLW8tbWF0aWMuaXR3bS5maHJnLmZyYXVuaG9mZXIuZGUv
eGJlL2NhLWNybC5wZW0wDQYJKoZIhvcNAQEFBQADggEBAI9KkeEi6wQjDloFCKIm
WOGyRz1EZPZ2qo0T4ie3kRZRBP+b2c7esQVFGkePq8v9TE93T7VcdlxLw2AymKp2
NNlRmFgbG4QYa5k9viYlLJJGz35i24Oyp7LdcYL+u5/vbV6gm0p1LRLbHAG2AmmS
3AFZGP9ZDVg9lFRp+wXabt5suIvPO42m6Otv6/nZLXFyaoCi+ifPfw31eJ9C2kCJ
rF1Ie9OXn9LRIRKjfCcPlNG2rkZ3gJXm+nrJc6DOiNMeMu/in+fdgFEN1TyUp8KP
hrT2NBYQrthv37oc008FdJWxevF7EDtWBiCWcQUWVqxmV/88ekniHnqkp0BcYep4
93M=
-----END CERTIFICATE-----
