Certificate:
    Data:
        Version: 3 (0x2)
        Serial Number: 4 (0x4)
        Signature Algorithm: sha1WithRSAEncryption
        Issuer: CN=XBE Server CA, C=DE, ST=Rheinland-Pfalz, L=Kaiserslautern, O=Fraunhofer ITWM/emailAddress=petry@itwm.fhg.de
        Validity
            Not Before: Aug  5 13:44:08 2008 GMT
            Not After : Aug  5 13:44:08 2011 GMT
        Subject: C=DE, ST=Rheinland-Pfalz, O=Fraunhofer ITWM, CN=Alexander Petry
        Subject Public Key Info:
            Public Key Algorithm: rsaEncryption
            RSA Public Key: (2048 bit)
                Modulus (2048 bit):
                    00:bd:25:c7:3c:a8:c1:6a:ac:e2:90:5e:09:f8:4c:
                    2f:e2:6a:22:cb:39:e2:51:cd:a0:d9:ab:53:5f:df:
                    fc:29:d3:44:4d:2e:0e:40:21:b8:4c:bc:f6:2c:3e:
                    c5:68:36:54:a4:40:04:8f:73:bc:81:3b:01:5c:1d:
                    5c:78:49:b0:8a:2a:ab:30:0e:4d:df:a8:85:aa:73:
                    6f:30:e9:dc:2e:1c:3c:1f:84:21:50:e6:c8:6f:f2:
                    fd:71:ba:1e:89:4a:59:73:bb:c8:8d:86:8e:53:08:
                    d6:6e:98:1b:1d:17:70:e9:31:8e:06:d2:5d:5a:db:
                    91:36:96:50:74:e2:3c:23:56:b6:90:7a:ad:0f:de:
                    df:22:15:5b:1a:f2:0d:08:f2:b3:d0:2e:cf:fe:d1:
                    aa:81:46:36:f9:36:ed:90:d1:b2:95:5d:46:df:ec:
                    86:25:cf:be:75:4c:82:9a:39:f2:fc:99:22:d4:3c:
                    c5:1b:27:7a:af:3e:8d:e0:2a:59:11:7f:7d:53:47:
                    55:9b:06:87:29:54:cc:17:a0:dc:10:13:7c:5c:ba:
                    cb:01:2d:f9:44:b2:f0:3f:b8:ff:8c:70:a0:f1:08:
                    19:19:16:9d:52:be:d8:8e:31:a6:30:32:92:b4:c8:
                    7d:02:a0:4d:ef:6e:73:7a:14:54:58:b9:3f:29:1d:
                    95:4d
                Exponent: 65537 (0x10001)
        X509v3 extensions:
            X509v3 Basic Constraints: 
                CA:FALSE
            X509v3 Subject Key Identifier: 
                E0:49:0D:00:79:38:DA:05:A1:47:E4:BA:FA:C8:E5:7E:0A:8B:A9:68
            X509v3 Authority Key Identifier: 
                keyid:A6:66:0C:66:BA:E4:BB:B1:73:64:8F:2B:F0:C8:CB:89:1C:8D:60:BF
                DirName:/CN=XBE Server CA/C=DE/ST=Rheinland-Pfalz/L=Kaiserslautern/O=Fraunhofer ITWM/emailAddress=petry@itwm.fhg.de
                serial:DD:39:25:87:0C:B5:FD:B3

            Netscape CA Revocation Url: 
                http://xen-o-matic.itwm.fhrg.fraunhofer.de/xbe/ca-crl.pem
    Signature Algorithm: sha1WithRSAEncryption
        0d:4f:bc:bc:0a:1b:04:bd:38:96:87:d1:d8:d3:1d:75:db:9f:
        9b:ea:da:31:da:1e:0d:a6:b2:88:63:da:75:95:79:7c:2d:ff:
        32:88:24:1b:7f:47:e0:b2:60:1b:70:1b:c9:6a:8a:48:66:6a:
        1a:cd:02:94:2d:7e:f6:85:92:14:2e:bd:14:c1:e5:3f:31:e1:
        16:0c:a9:30:82:2e:8a:b5:7a:2f:e9:9a:2c:c8:49:36:d4:34:
        1c:ee:4c:ca:7c:e2:98:6b:dd:a8:d0:d2:f4:32:1b:5d:0d:da:
        53:72:a7:dd:78:83:d0:2d:fe:d8:ff:52:2c:c1:89:a1:48:d1:
        a7:08:dc:f1:c7:5f:bc:df:b1:f6:04:29:03:a6:a8:50:52:2e:
        83:41:57:a0:48:9b:22:33:39:9e:59:7b:a5:28:ac:76:f7:ba:
        b7:38:2e:b4:98:81:69:28:00:19:65:bd:16:a0:8b:f3:c5:d2:
        4c:38:3d:c0:5b:57:4c:65:7a:c8:84:38:02:d8:2d:7c:b6:67:
        62:ce:39:72:c7:c5:d4:35:ee:fc:63:1c:67:40:cf:bc:a9:3b:
        cc:e0:66:a0:66:e5:25:3c:72:1c:5e:7e:65:9f:6d:f5:3a:a0:
        46:81:1e:3f:70:6d:54:f2:03:c9:1f:eb:53:18:12:3b:4a:99:
        66:87:5d:46
-----BEGIN CERTIFICATE-----
MIIEsTCCA5mgAwIBAgIBBDANBgkqhkiG9w0BAQUFADCBlDEWMBQGA1UEAxMNWEJF
IFNlcnZlciBDQTELMAkGA1UEBhMCREUxGDAWBgNVBAgTD1JoZWlubGFuZC1QZmFs
ejEXMBUGA1UEBxMOS2Fpc2Vyc2xhdXRlcm4xGDAWBgNVBAoTD0ZyYXVuaG9mZXIg
SVRXTTEgMB4GCSqGSIb3DQEJARYRcGV0cnlAaXR3bS5maGcuZGUwHhcNMDgwODA1
MTM0NDA4WhcNMTEwODA1MTM0NDA4WjBbMQswCQYDVQQGEwJERTEYMBYGA1UECBMP
UmhlaW5sYW5kLVBmYWx6MRgwFgYDVQQKEw9GcmF1bmhvZmVyIElUV00xGDAWBgNV
BAMTD0FsZXhhbmRlciBQZXRyeTCCASIwDQYJKoZIhvcNAQEBBQADggEPADCCAQoC
ggEBAL0lxzyowWqs4pBeCfhML+JqIss54lHNoNmrU1/f/CnTRE0uDkAhuEy89iw+
xWg2VKRABI9zvIE7AVwdXHhJsIoqqzAOTd+ohapzbzDp3C4cPB+EIVDmyG/y/XG6
HolKWXO7yI2GjlMI1m6YGx0XcOkxjgbSXVrbkTaWUHTiPCNWtpB6rQ/e3yIVWxry
DQjys9Auz/7RqoFGNvk27ZDRspVdRt/shiXPvnVMgpo58vyZItQ8xRsneq8+jeAq
WRF/fVNHVZsGhylUzBeg3BATfFy6ywEt+USy8D+4/4xwoPEIGRkWnVK+2I4xpjAy
krTIfQKgTe9uc3oUVFi5PykdlU0CAwEAAaOCAUQwggFAMAkGA1UdEwQCMAAwHQYD
VR0OBBYEFOBJDQB5ONoFoUfkuvrI5X4Ki6loMIHJBgNVHSMEgcEwgb6AFKZmDGa6
5Luxc2SPK/DIy4kcjWC/oYGapIGXMIGUMRYwFAYDVQQDEw1YQkUgU2VydmVyIENB
MQswCQYDVQQGEwJERTEYMBYGA1UECBMPUmhlaW5sYW5kLVBmYWx6MRcwFQYDVQQH
Ew5LYWlzZXJzbGF1dGVybjEYMBYGA1UEChMPRnJhdW5ob2ZlciBJVFdNMSAwHgYJ
KoZIhvcNAQkBFhFwZXRyeUBpdHdtLmZoZy5kZYIJAN05JYcMtf2zMEgGCWCGSAGG
+EIBBAQ7FjlodHRwOi8veGVuLW8tbWF0aWMuaXR3bS5maHJnLmZyYXVuaG9mZXIu
ZGUveGJlL2NhLWNybC5wZW0wDQYJKoZIhvcNAQEFBQADggEBAA1PvLwKGwS9OJaH
0djTHXXbn5vq2jHaHg2msohj2nWVeXwt/zKIJBt/R+CyYBtwG8lqikhmahrNApQt
fvaFkhQuvRTB5T8x4RYMqTCCLoq1ei/pmizISTbUNBzuTMp84phr3ajQ0vQyG10N
2lNyp914g9At/tj/UizBiaFI0acI3PHHX7zfsfYEKQOmqFBSLoNBV6BImyIzOZ5Z
e6UorHb3urc4LrSYgWkoABllvRagi/PF0kw4PcBbV0xlesiEOALYLXy2Z2LOOXLH
xdQ17vxjHGdAz7ypO8zgZqBm5SU8chxefmWfbfU6oEaBHj9wbVTyA8kf61MYEjtK
mWaHXUY=
-----END CERTIFICATE-----
