Certificate:
    Data:
        Version: 3 (0x2)
        Serial Number: 1 (0x1)
        Signature Algorithm: sha1WithRSAEncryption
        Issuer: CN=XBE Server CA, C=DE, ST=Rheinland-Pfalz, L=Kaiserslautern, O=Fraunhofer ITWM/emailAddress=petry@itwm.fhg.de
        Validity
            Not Before: Feb 15 20:25:21 2007 GMT
            Not After : Feb 15 20:25:21 2008 GMT
        Subject: C=DE, ST=Rheinland-Pfalz, O=Fraunhofer ITWM, OU=FHRG, CN=XBE Daemon 1/emailAddress=petry@itwm.fhg.de
        Subject Public Key Info:
            Public Key Algorithm: rsaEncryption
            RSA Public Key: (2048 bit)
                Modulus (2048 bit):
                    00:a3:50:af:01:73:77:0c:07:d1:26:34:10:66:73:
                    6f:17:43:1c:2f:ba:16:3c:f8:d8:94:2b:3e:50:a9:
                    59:d7:3e:6c:cc:52:2f:6f:bc:99:a5:4d:8b:58:24:
                    58:1a:ef:a2:7d:a9:e3:a3:40:3c:db:7a:ab:da:f5:
                    cf:ae:5d:24:75:ea:19:17:18:49:e8:da:80:b8:1c:
                    cf:9c:1a:89:16:4a:8d:78:a1:9f:f3:68:06:33:60:
                    5a:93:8b:b6:fe:37:c4:ad:59:66:b4:31:cb:5e:2e:
                    1b:bd:53:8d:1d:40:2f:d7:23:24:f9:0f:77:cd:ea:
                    35:f0:d7:db:ed:86:e9:f2:f5:9b:b3:a0:82:8a:31:
                    af:9d:8b:2c:9b:ee:01:1c:4e:08:45:c8:a5:06:9a:
                    bb:f0:93:53:14:c6:31:5a:a7:48:d4:85:eb:62:0c:
                    09:34:76:15:2b:0f:2e:d4:b6:a0:f3:7b:3b:a1:11:
                    97:af:4e:e3:b4:4c:a6:cc:f4:eb:c4:ef:b5:83:34:
                    7c:94:64:77:eb:fd:00:42:6c:36:83:ad:31:fc:6c:
                    22:7c:82:ed:3b:86:14:8b:e9:fe:90:0a:a0:24:6a:
                    50:a0:08:d9:a3:3b:bc:d2:dd:d9:8d:c8:c4:31:e2:
                    03:11:80:f4:87:f5:8e:14:2c:27:9e:82:eb:28:cb:
                    f5:b5
                Exponent: 65537 (0x10001)
        X509v3 extensions:
            X509v3 Basic Constraints: 
                CA:FALSE
            X509v3 Subject Key Identifier: 
                7A:62:63:40:C3:C0:05:6F:06:D4:A5:4D:7F:AD:8A:AD:55:6C:A3:50
            X509v3 Authority Key Identifier: 
                keyid:A6:66:0C:66:BA:E4:BB:B1:73:64:8F:2B:F0:C8:CB:89:1C:8D:60:BF
                DirName:/CN=XBE Server CA/C=DE/ST=Rheinland-Pfalz/L=Kaiserslautern/O=Fraunhofer ITWM/emailAddress=petry@itwm.fhg.de
                serial:DD:39:25:87:0C:B5:FD:B3

            Netscape CA Revocation Url: 
                http://xen-o-matic.itwm.fhrg.fraunhofer.de/xbe/ca-crl.pem
    Signature Algorithm: sha1WithRSAEncryption
        58:de:fc:22:db:c5:53:a1:ee:82:63:c7:c2:1f:10:3f:3b:9d:
        a4:1b:4a:4d:8b:25:26:6d:9e:9f:9a:d6:fd:4a:26:52:32:fb:
        03:e5:34:24:a4:f5:5e:e9:cd:aa:ed:2f:3f:aa:a7:f0:76:43:
        86:d9:5d:d4:a6:07:7c:c1:52:ea:6f:2b:4c:52:34:fb:da:d7:
        9a:73:20:fd:bc:78:67:e3:2a:fe:4a:67:13:8c:b1:9f:15:98:
        67:40:ad:b5:3f:2d:24:df:da:ea:2f:2c:ee:01:f8:56:96:df:
        40:da:75:3f:16:c9:79:af:db:a5:f3:1a:56:e8:d9:0f:27:1e:
        84:43:ba:05:67:b1:b6:58:42:82:9e:6c:c2:67:bb:29:23:6d:
        50:10:90:ed:98:39:d9:00:a3:2a:2f:91:8e:fb:90:3d:3c:03:
        7e:f9:b9:69:b5:e9:70:81:a6:05:97:c6:14:9f:b3:05:73:a2:
        1b:f0:c6:bd:f8:54:19:02:41:e7:b2:38:f5:89:b6:de:c8:f2:
        a1:87:cf:56:fc:9f:94:db:87:4d:4a:3c:54:fe:fa:46:9d:fd:
        30:a1:6a:85:20:a3:de:df:e9:a2:df:62:4e:4b:b6:06:51:53:
        fd:04:75:c5:ab:90:71:2a:3e:d9:cd:bb:af:69:f6:33:13:00:
        b7:6b:f4:1c
-----BEGIN CERTIFICATE-----
MIIE4DCCA8igAwIBAgIBATANBgkqhkiG9w0BAQUFADCBlDEWMBQGA1UEAxMNWEJF
IFNlcnZlciBDQTELMAkGA1UEBhMCREUxGDAWBgNVBAgTD1JoZWlubGFuZC1QZmFs
ejEXMBUGA1UEBxMOS2Fpc2Vyc2xhdXRlcm4xGDAWBgNVBAoTD0ZyYXVuaG9mZXIg
SVRXTTEgMB4GCSqGSIb3DQEJARYRcGV0cnlAaXR3bS5maGcuZGUwHhcNMDcwMjE1
MjAyNTIxWhcNMDgwMjE1MjAyNTIxWjCBiTELMAkGA1UEBhMCREUxGDAWBgNVBAgT
D1JoZWlubGFuZC1QZmFsejEYMBYGA1UEChMPRnJhdW5ob2ZlciBJVFdNMQ0wCwYD
VQQLEwRGSFJHMRUwEwYDVQQDEwxYQkUgRGFlbW9uIDExIDAeBgkqhkiG9w0BCQEW
EXBldHJ5QGl0d20uZmhnLmRlMIIBIjANBgkqhkiG9w0BAQEFAAOCAQ8AMIIBCgKC
AQEAo1CvAXN3DAfRJjQQZnNvF0McL7oWPPjYlCs+UKlZ1z5szFIvb7yZpU2LWCRY
Gu+ifanjo0A823qr2vXPrl0kdeoZFxhJ6NqAuBzPnBqJFkqNeKGf82gGM2Bak4u2
/jfErVlmtDHLXi4bvVONHUAv1yMk+Q93zeo18Nfb7Ybp8vWbs6CCijGvnYssm+4B
HE4IRcilBpq78JNTFMYxWqdI1IXrYgwJNHYVKw8u1Lag83s7oRGXr07jtEymzPTr
xO+1gzR8lGR36/0AQmw2g60x/GwifILtO4YUi+n+kAqgJGpQoAjZozu80t3ZjcjE
MeIDEYD0h/WOFCwnnoLrKMv1tQIDAQABo4IBRDCCAUAwCQYDVR0TBAIwADAdBgNV
HQ4EFgQUemJjQMPABW8G1KVNf62KrVVso1AwgckGA1UdIwSBwTCBvoAUpmYMZrrk
u7FzZI8r8MjLiRyNYL+hgZqkgZcwgZQxFjAUBgNVBAMTDVhCRSBTZXJ2ZXIgQ0Ex
CzAJBgNVBAYTAkRFMRgwFgYDVQQIEw9SaGVpbmxhbmQtUGZhbHoxFzAVBgNVBAcT
DkthaXNlcnNsYXV0ZXJuMRgwFgYDVQQKEw9GcmF1bmhvZmVyIElUV00xIDAeBgkq
hkiG9w0BCQEWEXBldHJ5QGl0d20uZmhnLmRlggkA3Tklhwy1/bMwSAYJYIZIAYb4
QgEEBDsWOWh0dHA6Ly94ZW4tby1tYXRpYy5pdHdtLmZocmcuZnJhdW5ob2Zlci5k
ZS94YmUvY2EtY3JsLnBlbTANBgkqhkiG9w0BAQUFAAOCAQEAWN78ItvFU6HugmPH
wh8QPzudpBtKTYslJm2en5rW/UomUjL7A+U0JKT1XunNqu0vP6qn8HZDhtld1KYH
fMFS6m8rTFI0+9rXmnMg/bx4Z+Mq/kpnE4yxnxWYZ0CttT8tJN/a6i8s7gH4Vpbf
QNp1PxbJea/bpfMaVujZDycehEO6BWextlhCgp5swme7KSNtUBCQ7Zg52QCjKi+R
jvuQPTwDfvm5abXpcIGmBZfGFJ+zBXOiG/DGvfhUGQJB57I49Ym23sjyoYfPVvyf
lNuHTUo8VP76Rp39MKFqhSCj3t/pot9iTku2BlFT/QR1xauQcSo+2c27r2n2MxMA
t2v0HA==
-----END CERTIFICATE-----
