Certificate:
    Data:
        Version: 3 (0x2)
        Serial Number: 7 (0x7)
        Signature Algorithm: sha1WithRSAEncryption
        Issuer: CN=XBE Server CA, C=DE, ST=Rheinland-Pfalz, L=Kaiserslautern, O=Fraunhofer ITWM/emailAddress=petry@itwm.fhg.de
        Validity
            Not Before: Jan 26 16:06:06 2010 GMT
            Not After : Jan 25 16:06:06 2013 GMT
        Subject: C=DE, ST=BW, O=IAO, CN=XBED Stuttgart-01
        Subject Public Key Info:
            Public Key Algorithm: rsaEncryption
            RSA Public Key: (2048 bit)
                Modulus (2048 bit):
                    00:a9:57:02:0d:d8:6f:10:7f:2c:52:32:24:22:36:
                    dd:39:e5:ad:b1:fe:5f:5e:ab:56:51:47:50:39:c6:
                    c5:25:c3:f9:23:9d:2e:fd:08:4f:4a:9a:1d:6e:50:
                    90:49:a7:15:43:db:a0:4c:89:63:1c:b0:89:b7:f2:
                    8d:95:24:cd:50:cd:62:1a:2f:4a:de:7b:40:61:7d:
                    d9:47:60:b7:d9:ff:2f:9a:c4:11:81:ee:b5:ab:52:
                    8d:7a:e2:a9:fb:80:db:b5:67:76:36:a3:2f:81:f3:
                    58:92:34:41:5a:42:69:c2:62:f5:a8:16:54:18:50:
                    06:e0:9b:c2:bb:c0:e2:4c:b5:b7:5d:53:57:01:db:
                    bb:37:ac:d3:d2:ed:e3:5d:69:a7:52:68:f1:6a:1c:
                    9f:a2:51:2f:ac:80:33:51:44:f2:31:5b:7a:d4:39:
                    a7:e2:32:e0:34:55:39:1c:d5:aa:6a:73:8e:1a:a7:
                    31:19:a3:ed:1f:1b:31:54:d3:c4:27:b9:fb:e1:83:
                    74:6d:4c:f3:63:bd:f0:0a:4e:4e:e9:67:28:03:62:
                    8e:f6:32:25:78:30:cf:bd:49:43:36:5b:50:3e:bc:
                    fd:1a:e0:51:ad:08:99:71:90:30:44:9e:dc:2d:75:
                    37:67:1c:af:84:bb:ab:ff:53:20:c8:d8:ee:71:bb:
                    74:0b
                Exponent: 65537 (0x10001)
        X509v3 extensions:
            X509v3 Basic Constraints: 
                CA:FALSE
            X509v3 Subject Key Identifier: 
                31:53:1A:1C:73:72:20:66:EE:36:0E:88:2E:54:5D:28:F0:35:35:FE
            X509v3 Authority Key Identifier: 
                keyid:A6:66:0C:66:BA:E4:BB:B1:73:64:8F:2B:F0:C8:CB:89:1C:8D:60:BF
                DirName:/CN=XBE Server CA/C=DE/ST=Rheinland-Pfalz/L=Kaiserslautern/O=Fraunhofer ITWM/emailAddress=petry@itwm.fhg.de
                serial:DD:39:25:87:0C:B5:FD:B3

            Netscape CA Revocation Url: 
                http://xen-o-matic.itwm.fhrg.fraunhofer.de/xbe/ca-crl.pem
    Signature Algorithm: sha1WithRSAEncryption
        5f:31:92:3a:71:d6:76:6c:a9:ea:4e:a8:d1:70:60:33:5e:ee:
        33:af:05:a9:b6:9a:d5:8d:02:cb:ff:22:6f:21:2b:6e:84:89:
        b2:16:7e:79:bc:94:22:38:f9:80:6c:e0:cb:2b:21:03:7e:ff:
        56:72:68:6a:77:9e:42:c1:97:6e:5d:d2:56:dc:f9:6d:b2:62:
        bb:25:32:9f:48:37:29:c9:1d:bf:d6:90:5e:a0:d6:a2:a8:ca:
        cc:f3:79:ab:a5:e2:27:22:31:e5:98:23:4e:d8:4e:04:b6:71:
        b2:f6:29:58:cb:f2:2d:90:23:2b:07:82:71:2d:2d:12:e4:7d:
        e9:c3:16:20:a0:4d:73:02:8d:34:0c:a3:9e:1d:26:b0:89:d3:
        5e:62:3b:da:5b:d1:af:97:68:87:13:a7:3c:27:42:44:7c:ac:
        0f:75:e2:53:58:95:3f:c4:4f:bc:41:00:c7:df:3b:2d:a9:86:
        7f:a7:a1:e8:d0:b8:a6:5a:85:e0:71:c9:df:54:d8:f2:ed:07:
        37:4f:f7:1a:af:e5:11:38:dd:0a:5f:90:ab:e9:9b:da:ff:1a:
        8d:18:00:30:2d:a7:ab:6e:66:4c:8f:2e:c4:ea:b9:ab:cf:f6:
        b6:76:44:da:78:88:4c:d4:94:4f:da:6e:5b:88:3b:0a:b0:3f:
        91:80:a0:d8
-----BEGIN CERTIFICATE-----
MIIEmjCCA4KgAwIBAgIBBzANBgkqhkiG9w0BAQUFADCBlDEWMBQGA1UEAxMNWEJF
IFNlcnZlciBDQTELMAkGA1UEBhMCREUxGDAWBgNVBAgTD1JoZWlubGFuZC1QZmFs
ejEXMBUGA1UEBxMOS2Fpc2Vyc2xhdXRlcm4xGDAWBgNVBAoTD0ZyYXVuaG9mZXIg
SVRXTTEgMB4GCSqGSIb3DQEJARYRcGV0cnlAaXR3bS5maGcuZGUwHhcNMTAwMTI2
MTYwNjA2WhcNMTMwMTI1MTYwNjA2WjBEMQswCQYDVQQGEwJERTELMAkGA1UECBMC
QlcxDDAKBgNVBAoTA0lBTzEaMBgGA1UEAxMRWEJFRCBTdHV0dGdhcnQtMDEwggEi
MA0GCSqGSIb3DQEBAQUAA4IBDwAwggEKAoIBAQCpVwIN2G8QfyxSMiQiNt055a2x
/l9eq1ZRR1A5xsUlw/kjnS79CE9Kmh1uUJBJpxVD26BMiWMcsIm38o2VJM1QzWIa
L0ree0BhfdlHYLfZ/y+axBGB7rWrUo164qn7gNu1Z3Y2oy+B81iSNEFaQmnCYvWo
FlQYUAbgm8K7wOJMtbddU1cB27s3rNPS7eNdaadSaPFqHJ+iUS+sgDNRRPIxW3rU
OafiMuA0VTkc1apqc44apzEZo+0fGzFU08Qnufvhg3RtTPNjvfAKTk7pZygDYo72
MiV4MM+9SUM2W1A+vP0a4FGtCJlxkDBEntwtdTdnHK+Eu6v/UyDI2O5xu3QLAgMB
AAGjggFEMIIBQDAJBgNVHRMEAjAAMB0GA1UdDgQWBBQxUxocc3IgZu42DoguVF0o
8DU1/jCByQYDVR0jBIHBMIG+gBSmZgxmuuS7sXNkjyvwyMuJHI1gv6GBmqSBlzCB
lDEWMBQGA1UEAxMNWEJFIFNlcnZlciBDQTELMAkGA1UEBhMCREUxGDAWBgNVBAgT
D1JoZWlubGFuZC1QZmFsejEXMBUGA1UEBxMOS2Fpc2Vyc2xhdXRlcm4xGDAWBgNV
BAoTD0ZyYXVuaG9mZXIgSVRXTTEgMB4GCSqGSIb3DQEJARYRcGV0cnlAaXR3bS5m
aGcuZGWCCQDdOSWHDLX9szBIBglghkgBhvhCAQQEOxY5aHR0cDovL3hlbi1vLW1h
dGljLml0d20uZmhyZy5mcmF1bmhvZmVyLmRlL3hiZS9jYS1jcmwucGVtMA0GCSqG
SIb3DQEBBQUAA4IBAQBfMZI6cdZ2bKnqTqjRcGAzXu4zrwWptprVjQLL/yJvIStu
hImyFn55vJQiOPmAbODLKyEDfv9Wcmhqd55CwZduXdJW3PltsmK7JTKfSDcpyR2/
1pBeoNaiqMrM83mrpeInIjHlmCNO2E4EtnGy9ilYy/ItkCMrB4JxLS0S5H3pwxYg
oE1zAo00DKOeHSawidNeYjvaW9Gvl2iHE6c8J0JEfKwPdeJTWJU/xE+8QQDH3zst
qYZ/p6Ho0LimWoXgccnfVNjy7Qc3T/car+URON0KX5Cr6Zva/xqNGAAwLaerbmZM
jy7E6rmrz/a2dkTaeIhM1JRP2m5biDsKsD+RgKDY
-----END CERTIFICATE-----
